; Function Attrs: mustprogress nofree norecurse nosync nounwind willreturn memory(write, argmem: readwrite, inaccessiblemem: none) uwtable
define void @Tim_ManSetCiRequired(ptr noundef readonly captures(none) %0, i32 noundef %1, float noundef %2) local_unnamed_addr #0 {
  %4 = getelementptr inbounds nuw i8, ptr %0, i64 40
  %5 = load ptr, ptr %4, align 8, !tbaa !3
  %6 = sext i32 %1 to i64
  %7 = getelementptr inbounds %struct.Tim_Obj_t_, ptr %5, i64 %6, i32 5
  store float %2, ptr %7, align 4, !tbaa !16
  %8 = getelementptr inbounds nuw i8, ptr %0, i64 24
  %9 = load i32, ptr %8, align 8, !tbaa !22
  %10 = getelementptr inbounds %struct.Tim_Obj_t_, ptr %5, i64 %6, i32 1
  store i32 %9, ptr %10, align 4, !tbaa !23
  ret void
}